target datalayout = "e-m:e-p270:32:32-p271:32:32-p272:64:64-i64:64-i128:128-f80:128-n8:16:32:64-S128"
target triple = "x86_64-pc-linux-gnu"

%"struct.std::_Vector_base" = type { %"struct.std::_Vector_base<double, std::allocator<double>>::_Vector_impl" }
%"struct.std::_Vector_base<double, std::allocator<double>>::_Vector_impl" = type { %"struct.std::_Vector_base<double, std::allocator<double>>::_Vector_impl_data" }
%"struct.std::_Vector_base<double, std::allocator<double>>::_Vector_impl_data" = type { ptr, ptr, ptr }
%class.anon = type { ptr, ptr, ptr, ptr }

; Function Attrs: mustprogress nounwind uwtable
define linkonce_odr noundef nonnull align 8 dereferenceable(8) ptr @_ZNSt6vectorIdSaIdEEixEm(ptr noundef nonnull align 8 dereferenceable(24) %0, i64 noundef %1) #0 comdat align 2 {
  %3 = alloca ptr, align 8
  %4 = alloca i64, align 8
  store ptr %0, ptr %3, align 8
  store i64 %1, ptr %4, align 8
  %5 = load ptr, ptr %3, align 8
  %6 = getelementptr inbounds %"struct.std::_Vector_base", ptr %5, i32 0, i32 0
  %7 = getelementptr inbounds %"struct.std::_Vector_base<double, std::allocator<double>>::_Vector_impl_data", ptr %6, i32 0, i32 0
  %8 = load ptr, ptr %7, align 8
  %9 = load i64, ptr %4, align 8
  %10 = getelementptr inbounds double, ptr %8, i64 %9
  ret ptr %10
}

; Function Attrs: mustprogress nounwind uwtable
define linkonce_odr noundef float @_ZSt4fabsf(float noundef %0) #0 comdat {
  %2 = alloca float, align 4
  store float %0, ptr %2, align 4
  %3 = load float, ptr %2, align 4
  %4 = call float @llvm.fabs.f32(float %3)
  ret float %4
}

; Function Attrs: mustprogress uwtable
define internal void @"_ZZN8LightGBM19GradientDiscretizer19DiscretizeGradientsEiPKfS2_ENK3$_0clEiii"(ptr noundef nonnull align 8 dereferenceable(32) %0, i32 noundef %1, i32 noundef %2, i32 noundef %3) #1 align 2 {
  %5 = alloca ptr, align 8
  %6 = alloca i32, align 4
  %7 = alloca i32, align 4
  %8 = alloca i32, align 4
  %9 = alloca i32, align 4
  %10 = alloca i32, align 4
  %11 = alloca double, align 8
  %12 = alloca double, align 8
  store ptr %0, ptr %5, align 8
  store i32 %1, ptr %6, align 4
  store i32 %2, ptr %7, align 4
  store i32 %3, ptr %8, align 4
  %13 = load ptr, ptr %5, align 8
  %14 = call i32 @omp_get_thread_num()
  store i32 %14, ptr %9, align 4
  %15 = load i32, ptr %7, align 4
  store i32 %15, ptr %10, align 4
  br label %16

16:                                               ; preds = %69, %4
  %17 = load i32, ptr %10, align 4
  %18 = load i32, ptr %8, align 4
  %19 = icmp slt i32 %17, %18
  br i1 %19, label %20, label %72

20:                                               ; preds = %16
  %21 = getelementptr inbounds %class.anon, ptr %13, i32 0, i32 0
  %22 = load ptr, ptr %21, align 8
  %23 = load i32, ptr %10, align 4
  %24 = sext i32 %23 to i64
  %25 = getelementptr inbounds float, ptr %22, i64 %24
  %26 = load float, ptr %25, align 4
  %27 = call noundef float @_ZSt4fabsf(float noundef %26)
  %28 = fpext float %27 to double
  store double %28, ptr %11, align 8
  %29 = getelementptr inbounds %class.anon, ptr %13, i32 0, i32 1
  %30 = load ptr, ptr %29, align 8
  %31 = load i32, ptr %10, align 4
  %32 = sext i32 %31 to i64
  %33 = getelementptr inbounds float, ptr %30, i64 %32
  %34 = load float, ptr %33, align 4
  %35 = call noundef float @_ZSt4fabsf(float noundef %34)
  %36 = fpext float %35 to double
  store double %36, ptr %12, align 8
  %37 = load double, ptr %11, align 8
  %38 = getelementptr inbounds %class.anon, ptr %13, i32 0, i32 2
  %39 = load ptr, ptr %38, align 8
  %40 = load i32, ptr %9, align 4
  %41 = sext i32 %40 to i64
  %42 = call noundef nonnull align 8 dereferenceable(8) ptr @_ZNSt6vectorIdSaIdEEixEm(ptr noundef nonnull align 8 dereferenceable(24) %39, i64 noundef %41) #5
  %43 = load double, ptr %42, align 8
  %44 = fcmp ogt double %37, %43
  br i1 %44, label %45, label %52

45:                                               ; preds = %20
  %46 = load double, ptr %11, align 8
  %47 = getelementptr inbounds %class.anon, ptr %13, i32 0, i32 2
  %48 = load ptr, ptr %47, align 8
  %49 = load i32, ptr %9, align 4
  %50 = sext i32 %49 to i64
  %51 = call noundef nonnull align 8 dereferenceable(8) ptr @_ZNSt6vectorIdSaIdEEixEm(ptr noundef nonnull align 8 dereferenceable(24) %48, i64 noundef %50) #5
  store double %46, ptr %51, align 8
  br label %52

52:                                               ; preds = %45, %20
  %53 = load double, ptr %12, align 8
  %54 = getelementptr inbounds %class.anon, ptr %13, i32 0, i32 3
  %55 = load ptr, ptr %54, align 8
  %56 = load i32, ptr %9, align 4
  %57 = sext i32 %56 to i64
  %58 = call noundef nonnull align 8 dereferenceable(8) ptr @_ZNSt6vectorIdSaIdEEixEm(ptr noundef nonnull align 8 dereferenceable(24) %55, i64 noundef %57) #5
  %59 = load double, ptr %58, align 8
  %60 = fcmp ogt double %53, %59
  br i1 %60, label %61, label %68

61:                                               ; preds = %52
  %62 = load double, ptr %12, align 8
  %63 = getelementptr inbounds %class.anon, ptr %13, i32 0, i32 3
  %64 = load ptr, ptr %63, align 8
  %65 = load i32, ptr %9, align 4
  %66 = sext i32 %65 to i64
  %67 = call noundef nonnull align 8 dereferenceable(8) ptr @_ZNSt6vectorIdSaIdEEixEm(ptr noundef nonnull align 8 dereferenceable(24) %64, i64 noundef %66) #5
  store double %62, ptr %67, align 8
  br label %68

68:                                               ; preds = %61, %52
  br label %69

69:                                               ; preds = %68
  %70 = load i32, ptr %10, align 4
  %71 = add nsw i32 %70, 1
  store i32 %71, ptr %10, align 4
  br label %16, !llvm.loop !19

72:                                               ; preds = %16
  ret void
}

; Function Attrs: mustprogress nounwind uwtable
define linkonce_odr noundef ptr @_ZNKSt9_Any_data9_M_accessEv(ptr noundef nonnull align 8 dereferenceable(16) %0) #0 comdat align 2 {
  %2 = alloca ptr, align 8
  store ptr %0, ptr %2, align 8
  %3 = load ptr, ptr %2, align 8
  %4 = getelementptr inbounds [16 x i8], ptr %3, i64 0, i64 0
  ret ptr %4
}

; Function Attrs: mustprogress uwtable
define internal void @"_ZSt13__invoke_implIvRZN8LightGBM19GradientDiscretizer19DiscretizeGradientsEiPKfS3_E3$_0JiiiEET_St14__invoke_otherOT0_DpOT1_"(ptr noundef nonnull align 8 dereferenceable(32) %0, ptr noundef nonnull align 4 dereferenceable(4) %1, ptr noundef nonnull align 4 dereferenceable(4) %2, ptr noundef nonnull align 4 dereferenceable(4) %3) #1 {
  %5 = alloca ptr, align 8
  %6 = alloca ptr, align 8
  %7 = alloca ptr, align 8
  %8 = alloca ptr, align 8
  store ptr %0, ptr %5, align 8
  store ptr %1, ptr %6, align 8
  store ptr %2, ptr %7, align 8
  store ptr %3, ptr %8, align 8
  %9 = load ptr, ptr %5, align 8
  %10 = load ptr, ptr %6, align 8
  %11 = load i32, ptr %10, align 4
  %12 = load ptr, ptr %7, align 8
  %13 = load i32, ptr %12, align 4
  %14 = load ptr, ptr %8, align 8
  %15 = load i32, ptr %14, align 4
  call void @"_ZZN8LightGBM19GradientDiscretizer19DiscretizeGradientsEiPKfS2_ENK3$_0clEiii"(ptr noundef nonnull align 8 dereferenceable(32) %9, i32 noundef %11, i32 noundef %13, i32 noundef %15)
  ret void
}

; Function Attrs: mustprogress nounwind uwtable
define internal noundef nonnull align 8 dereferenceable(8) ptr @"_ZNKSt9_Any_data9_M_accessIPZN8LightGBM19GradientDiscretizer19DiscretizeGradientsEiPKfS4_E3$_0EERKT_v"(ptr noundef nonnull align 8 dereferenceable(16) %0) #0 align 2 {
  %2 = alloca ptr, align 8
  store ptr %0, ptr %2, align 8
  %3 = load ptr, ptr %2, align 8
  %4 = call noundef ptr @_ZNKSt9_Any_data9_M_accessEv(ptr noundef nonnull align 8 dereferenceable(16) %3) #5
  ret ptr %4
}

; Function Attrs: mustprogress uwtable
define internal void @"_ZSt10__invoke_rIvRZN8LightGBM19GradientDiscretizer19DiscretizeGradientsEiPKfS3_E3$_0JiiiEENSt9enable_ifIXsr6__and_ISt7is_voidIT_ESt14__is_invocableIT0_JDpT1_EEEE5valueES8_E4typeEOSB_DpOSC_"(ptr noundef nonnull align 8 dereferenceable(32) %0, ptr noundef nonnull align 4 dereferenceable(4) %1, ptr noundef nonnull align 4 dereferenceable(4) %2, ptr noundef nonnull align 4 dereferenceable(4) %3) #1 {
  %5 = alloca ptr, align 8
  %6 = alloca ptr, align 8
  %7 = alloca ptr, align 8
  %8 = alloca ptr, align 8
  store ptr %0, ptr %5, align 8
  store ptr %1, ptr %6, align 8
  store ptr %2, ptr %7, align 8
  store ptr %3, ptr %8, align 8
  %9 = load ptr, ptr %5, align 8
  %10 = load ptr, ptr %6, align 8
  %11 = load ptr, ptr %7, align 8
  %12 = load ptr, ptr %8, align 8
  call void @"_ZSt13__invoke_implIvRZN8LightGBM19GradientDiscretizer19DiscretizeGradientsEiPKfS3_E3$_0JiiiEET_St14__invoke_otherOT0_DpOT1_"(ptr noundef nonnull align 8 dereferenceable(32) %9, ptr noundef nonnull align 4 dereferenceable(4) %10, ptr noundef nonnull align 4 dereferenceable(4) %11, ptr noundef nonnull align 4 dereferenceable(4) %12)
  ret void
}

; Function Attrs: mustprogress nounwind uwtable
define internal noundef ptr @"_ZNSt14_Function_base13_Base_managerIZN8LightGBM19GradientDiscretizer19DiscretizeGradientsEiPKfS4_E3$_0E14_M_get_pointerERKSt9_Any_data"(ptr noundef nonnull align 8 dereferenceable(16) %0) #0 align 2 {
  %2 = alloca ptr, align 8
  store ptr %0, ptr %2, align 8
  %3 = load ptr, ptr %2, align 8
  %4 = call noundef nonnull align 8 dereferenceable(8) ptr @"_ZNKSt9_Any_data9_M_accessIPZN8LightGBM19GradientDiscretizer19DiscretizeGradientsEiPKfS4_E3$_0EERKT_v"(ptr noundef nonnull align 8 dereferenceable(16) %3) #5
  %5 = load ptr, ptr %4, align 8
  ret ptr %5
}

; Function Attrs: mustprogress uwtable
define internal void @"_ZNSt17_Function_handlerIFviiiEZN8LightGBM19GradientDiscretizer19DiscretizeGradientsEiPKfS4_E3$_0E9_M_invokeERKSt9_Any_dataOiSA_SA_"(ptr noundef nonnull align 8 dereferenceable(16) %0, ptr noundef nonnull align 4 dereferenceable(4) %1, ptr noundef nonnull align 4 dereferenceable(4) %2, ptr noundef nonnull align 4 dereferenceable(4) %3) #1 align 2 {
  %5 = alloca ptr, align 8
  %6 = alloca ptr, align 8
  %7 = alloca ptr, align 8
  %8 = alloca ptr, align 8
  store ptr %0, ptr %5, align 8
  store ptr %1, ptr %6, align 8
  store ptr %2, ptr %7, align 8
  store ptr %3, ptr %8, align 8
  %9 = load ptr, ptr %5, align 8
  %10 = call noundef ptr @"_ZNSt14_Function_base13_Base_managerIZN8LightGBM19GradientDiscretizer19DiscretizeGradientsEiPKfS4_E3$_0E14_M_get_pointerERKSt9_Any_data"(ptr noundef nonnull align 8 dereferenceable(16) %9) #5
  %11 = load ptr, ptr %6, align 8
  %12 = load ptr, ptr %7, align 8
  %13 = load ptr, ptr %8, align 8
  call void @"_ZSt10__invoke_rIvRZN8LightGBM19GradientDiscretizer19DiscretizeGradientsEiPKfS3_E3$_0JiiiEENSt9enable_ifIXsr6__and_ISt7is_voidIT_ESt14__is_invocableIT0_JDpT1_EEEE5valueES8_E4typeEOSB_DpOSC_"(ptr noundef nonnull align 8 dereferenceable(32) %10, ptr noundef nonnull align 4 dereferenceable(4) %11, ptr noundef nonnull align 4 dereferenceable(4) %12, ptr noundef nonnull align 4 dereferenceable(4) %13)
  ret void
}