; Function Attrs: mustprogress nounwind uwtable
define internal void @"_ZNSt17_Function_handlerIFviiiEZN8LightGBM19GradientDiscretizer19DiscretizeGradientsEiPKfS4_E3$_0E9_M_invokeERKSt9_Any_dataOiSA_SA_"(ptr nocapture noundef nonnull readonly align 8 dereferenceable(16) %0, ptr nocapture nonnull readonly align 4 %1, ptr nocapture noundef nonnull readonly align 4 dereferenceable(4) %2, ptr nocapture noundef nonnull readonly align 4 dereferenceable(4) %3) #0 align 2 {
  %.val = load ptr, ptr %0, align 8
  %.val5 = load i32, ptr %2, align 4
  %.val6 = load i32, ptr %3, align 4
  %5 = tail call i32 @omp_get_thread_num()
  %6 = icmp slt i32 %.val5, %.val6
  br i1 %6, label %.lr.ph.i.i.i, label %"_ZSt10__invoke_rIvRZN8LightGBM19GradientDiscretizer19DiscretizeGradientsEiPKfS3_E3$_0JiiiEENSt9enable_ifIXsr6__and_ISt7is_voidIT_ESt14__is_invocableIT0_JDpT1_EEEE5valueES8_E4typeEOSB_DpOSC_.exit"

.lr.ph.i.i.i:                                     ; preds = %4
  %7 = getelementptr inbounds i8, ptr %.val, i64 8
  %8 = getelementptr inbounds i8, ptr %.val, i64 16
  %9 = sext i32 %5 to i64
  %10 = getelementptr inbounds i8, ptr %.val, i64 24
  %11 = sext i32 %.val5 to i64
  %wide.trip.count.i.i.i = sext i32 %.val6 to i64
  br label %12

12:                                               ; preds = %36, %.lr.ph.i.i.i
  %indvars.iv.i.i.i = phi i64 [ %11, %.lr.ph.i.i.i ], [ %indvars.iv.next.i.i.i, %36 ]
  %13 = load ptr, ptr %.val, align 8
  %14 = getelementptr inbounds float, ptr %13, i64 %indvars.iv.i.i.i
  %15 = load float, ptr %14, align 4
  %16 = tail call noundef float @llvm.fabs.f32(float %15)
  %17 = fpext float %16 to double
  %18 = load ptr, ptr %7, align 8
  %19 = getelementptr inbounds float, ptr %18, i64 %indvars.iv.i.i.i
  %20 = load float, ptr %19, align 4
  %21 = tail call noundef float @llvm.fabs.f32(float %20)
  %22 = fpext float %21 to double
  %23 = load ptr, ptr %8, align 8
  %24 = load ptr, ptr %23, align 8
  %25 = getelementptr inbounds double, ptr %24, i64 %9
  %26 = load double, ptr %25, align 8
  %27 = fcmp olt double %26, %17
  br i1 %27, label %28, label %29

28:                                               ; preds = %12
  store double %17, ptr %25, align 8
  br label %29

29:                                               ; preds = %28, %12
  %30 = load ptr, ptr %10, align 8
  %31 = load ptr, ptr %30, align 8
  %32 = getelementptr inbounds double, ptr %31, i64 %9
  %33 = load double, ptr %32, align 8
  %34 = fcmp olt double %33, %22
  br i1 %34, label %35, label %36

35:                                               ; preds = %29
  store double %22, ptr %32, align 8
  br label %36

36:                                               ; preds = %35, %29
  %indvars.iv.next.i.i.i = add nsw i64 %indvars.iv.i.i.i, 1
  %exitcond.not.i.i.i = icmp eq i64 %indvars.iv.next.i.i.i, %wide.trip.count.i.i.i
  br i1 %exitcond.not.i.i.i, label %"_ZSt10__invoke_rIvRZN8LightGBM19GradientDiscretizer19DiscretizeGradientsEiPKfS3_E3$_0JiiiEENSt9enable_ifIXsr6__and_ISt7is_voidIT_ESt14__is_invocableIT0_JDpT1_EEEE5valueES8_E4typeEOSB_DpOSC_.exit", label %12, !llvm.loop !22

"_ZSt10__invoke_rIvRZN8LightGBM19GradientDiscretizer19DiscretizeGradientsEiPKfS3_E3$_0JiiiEENSt9enable_ifIXsr6__and_ISt7is_voidIT_ESt14__is_invocableIT0_JDpT1_EEEE5valueES8_E4typeEOSB_DpOSC_.exit": ; preds = %36, %4
  ret void
}